; Function Attrs: mustprogress uwtable
define noundef zeroext i1 @_ZN3vcg9Trackball11IsAnimatingEj(ptr noundef nonnull align 8 dereferenceable(597) %0, i32 noundef %1) local_unnamed_addr #6 align 2 {
  %3 = getelementptr inbounds i8, ptr %0, i64 344
  %4 = load ptr, ptr %3, align 8
  %5 = icmp eq ptr %4, null
  br i1 %5, label %11, label %6

6:                                                ; preds = %2
  %7 = load ptr, ptr %4, align 8
  %8 = getelementptr inbounds i8, ptr %7, i64 80
  %9 = load ptr, ptr %8, align 8
  %10 = tail call noundef zeroext i1 %9(ptr noundef nonnull align 8 dereferenceable(8) %4, ptr noundef nonnull %0)
  br label %11

11:                                               ; preds = %2, %6
  %.0 = phi i1 [ %10, %6 ], [ false, %2 ]
  %12 = getelementptr inbounds i8, ptr %0, i64 596
  %13 = load i8, ptr %12, align 4
  %14 = and i8 %13, 1
  %.not = icmp eq i8 %14, 0
  br i1 %.not, label %15, label %24

15:                                               ; preds = %11
  %16 = icmp eq i32 %1, 0
  br i1 %16, label %17, label %21

17:                                               ; preds = %15
  %18 = tail call i64 @clock() #27
  %19 = sdiv i64 %18, 1000
  %20 = trunc i64 %19 to i32
  br label %21

21:                                               ; preds = %17, %15
  %.04 = phi i32 [ %20, %17 ], [ %1, %15 ]
  br i1 %.0, label %24, label %22

22:                                               ; preds = %21
  %23 = getelementptr inbounds i8, ptr %0, i64 544
  store i32 %.04, ptr %23, align 8
  br label %24

24:                                               ; preds = %21, %22, %11
  ret i1 %.0
}